target datalayout = "e-m:e-p270:32:32-p271:32:32-p272:64:64-i64:64-i128:128-f80:128-n8:16:32:64-S128"
target triple = "x86_64-pc-linux-gnu"

%struct.H5LT_file_image_ud_t = type { ptr, i64, ptr, i64, i32, ptr, i64, i32, i32, i32 }

; Function Attrs: nounwind uwtable
define internal i32 @udata_free(ptr noundef %0) #0 {
  %2 = alloca i32, align 4
  %3 = alloca ptr, align 8
  %4 = alloca ptr, align 8
  %5 = alloca i32, align 4
  store ptr %0, ptr %3, align 8, !tbaa !14
  call void @llvm.lifetime.start.p0(i64 8, ptr %4) #11
  %6 = load ptr, ptr %3, align 8, !tbaa !14
  store ptr %6, ptr %4, align 8, !tbaa !14
  %7 = load ptr, ptr %4, align 8, !tbaa !14
  %8 = getelementptr inbounds nuw %struct.H5LT_file_image_ud_t, ptr %7, i32 0, i32 8
  %9 = load i32, ptr %8, align 4, !tbaa !39
  %10 = and i32 %9, 2
  %11 = icmp ne i32 %10, 0
  br i1 %11, label %13, label %12

12:                                               ; preds = %1
  br label %31

13:                                               ; preds = %1
  %14 = load ptr, ptr %4, align 8, !tbaa !14
  %15 = getelementptr inbounds nuw %struct.H5LT_file_image_ud_t, ptr %14, i32 0, i32 9
  %16 = load i32, ptr %15, align 8, !tbaa !40
  %17 = icmp eq i32 %16, 0
  br i1 %17, label %18, label %19

18:                                               ; preds = %13
  br label %31

19:                                               ; preds = %13
  %20 = load ptr, ptr %4, align 8, !tbaa !14
  %21 = getelementptr inbounds nuw %struct.H5LT_file_image_ud_t, ptr %20, i32 0, i32 9
  %22 = load i32, ptr %21, align 8, !tbaa !40
  %23 = add nsw i32 %22, -1
  store i32 %23, ptr %21, align 8, !tbaa !40
  %24 = load ptr, ptr %4, align 8, !tbaa !14
  %25 = getelementptr inbounds nuw %struct.H5LT_file_image_ud_t, ptr %24, i32 0, i32 9
  %26 = load i32, ptr %25, align 8, !tbaa !40
  %27 = icmp eq i32 %26, 0
  br i1 %27, label %28, label %30

28:                                               ; preds = %19
  %29 = load ptr, ptr %4, align 8, !tbaa !14
  call void @free(ptr noundef %29) #11
  br label %30

30:                                               ; preds = %28, %19
  store i32 0, ptr %2, align 4
  store i32 1, ptr %5, align 4
  br label %32

31:                                               ; preds = %18, %12
  store i32 -1, ptr %2, align 4
  store i32 1, ptr %5, align 4
  br label %32

32:                                               ; preds = %31, %30
  call void @llvm.lifetime.end.p0(i64 8, ptr %4) #11
  %33 = load i32, ptr %2, align 4
  ret i32 %33
}

; Function Attrs: nounwind uwtable
define internal i32 @image_free(ptr noundef %0, i32 noundef %1, ptr noundef %2) #0 {
  %4 = alloca i32, align 4
  %5 = alloca ptr, align 8
  %6 = alloca i32, align 4
  %7 = alloca ptr, align 8
  %8 = alloca ptr, align 8
  %9 = alloca i32, align 4
  store ptr %0, ptr %5, align 8, !tbaa !14
  store i32 %1, ptr %6, align 4, !tbaa !10
  store ptr %2, ptr %7, align 8, !tbaa !14
  call void @llvm.lifetime.start.p0(i64 8, ptr %8) #11
  %10 = load ptr, ptr %7, align 8, !tbaa !14
  store ptr %10, ptr %8, align 8, !tbaa !14
  %11 = load ptr, ptr %8, align 8, !tbaa !14
  %12 = getelementptr inbounds nuw %struct.H5LT_file_image_ud_t, ptr %11, i32 0, i32 8
  %13 = load i32, ptr %12, align 4, !tbaa !39
  %14 = and i32 %13, 2
  %15 = icmp ne i32 %14, 0
  br i1 %15, label %17, label %16

16:                                               ; preds = %3
  br label %115

17:                                               ; preds = %3
  %18 = load i32, ptr %6, align 4, !tbaa !10
  switch i32 %18, label %113 [
    i32 4, label %19
    i32 7, label %63
    i32 0, label %112
    i32 1, label %112
    i32 2, label %112
    i32 3, label %112
    i32 5, label %112
    i32 6, label %112
  ]

19:                                               ; preds = %17
  %20 = load ptr, ptr %8, align 8, !tbaa !14
  %21 = getelementptr inbounds nuw %struct.H5LT_file_image_ud_t, ptr %20, i32 0, i32 2
  %22 = load ptr, ptr %21, align 8, !tbaa !33
  %23 = load ptr, ptr %5, align 8, !tbaa !14
  %24 = icmp ne ptr %22, %23
  br i1 %24, label %25, label %26

25:                                               ; preds = %19
  br label %115

26:                                               ; preds = %19
  %27 = load ptr, ptr %8, align 8, !tbaa !14
  %28 = getelementptr inbounds nuw %struct.H5LT_file_image_ud_t, ptr %27, i32 0, i32 4
  %29 = load i32, ptr %28, align 8, !tbaa !35
  %30 = icmp eq i32 %29, 0
  br i1 %30, label %31, label %32

31:                                               ; preds = %26
  br label %115

32:                                               ; preds = %26
  %33 = load ptr, ptr %8, align 8, !tbaa !14
  %34 = getelementptr inbounds nuw %struct.H5LT_file_image_ud_t, ptr %33, i32 0, i32 4
  %35 = load i32, ptr %34, align 8, !tbaa !35
  %36 = add nsw i32 %35, -1
  store i32 %36, ptr %34, align 8, !tbaa !35
  %37 = load ptr, ptr %8, align 8, !tbaa !14
  %38 = getelementptr inbounds nuw %struct.H5LT_file_image_ud_t, ptr %37, i32 0, i32 4
  %39 = load i32, ptr %38, align 8, !tbaa !35
  %40 = icmp eq i32 %39, 0
  br i1 %40, label %41, label %62

41:                                               ; preds = %32
  %42 = load ptr, ptr %8, align 8, !tbaa !14
  %43 = getelementptr inbounds nuw %struct.H5LT_file_image_ud_t, ptr %42, i32 0, i32 7
  %44 = load i32, ptr %43, align 8, !tbaa !38
  %45 = icmp eq i32 %44, 0
  br i1 %45, label %46, label %62

46:                                               ; preds = %41
  %47 = load ptr, ptr %8, align 8, !tbaa !14
  %48 = getelementptr inbounds nuw %struct.H5LT_file_image_ud_t, ptr %47, i32 0, i32 8
  %49 = load i32, ptr %48, align 4, !tbaa !39
  %50 = and i32 %49, 4
  %51 = icmp ne i32 %50, 0
  br i1 %51, label %62, label %52

52:                                               ; preds = %46
  %53 = load ptr, ptr %8, align 8, !tbaa !14
  %54 = getelementptr inbounds nuw %struct.H5LT_file_image_ud_t, ptr %53, i32 0, i32 2
  %55 = load ptr, ptr %54, align 8, !tbaa !33
  call void @free(ptr noundef %55) #11
  %56 = load ptr, ptr %8, align 8, !tbaa !14
  %57 = getelementptr inbounds nuw %struct.H5LT_file_image_ud_t, ptr %56, i32 0, i32 0
  store ptr null, ptr %57, align 8, !tbaa !30
  %58 = load ptr, ptr %8, align 8, !tbaa !14
  %59 = getelementptr inbounds nuw %struct.H5LT_file_image_ud_t, ptr %58, i32 0, i32 2
  store ptr null, ptr %59, align 8, !tbaa !33
  %60 = load ptr, ptr %8, align 8, !tbaa !14
  %61 = getelementptr inbounds nuw %struct.H5LT_file_image_ud_t, ptr %60, i32 0, i32 5
  store ptr null, ptr %61, align 8, !tbaa !36
  br label %62

62:                                               ; preds = %52, %46, %41, %32
  br label %114

63:                                               ; preds = %17
  %64 = load ptr, ptr %8, align 8, !tbaa !14
  %65 = getelementptr inbounds nuw %struct.H5LT_file_image_ud_t, ptr %64, i32 0, i32 5
  %66 = load ptr, ptr %65, align 8, !tbaa !36
  %67 = load ptr, ptr %5, align 8, !tbaa !14
  %68 = icmp ne ptr %66, %67
  br i1 %68, label %69, label %70

69:                                               ; preds = %63
  br label %115

70:                                               ; preds = %63
  %71 = load ptr, ptr %8, align 8, !tbaa !14
  %72 = getelementptr inbounds nuw %struct.H5LT_file_image_ud_t, ptr %71, i32 0, i32 7
  %73 = load i32, ptr %72, align 8, !tbaa !38
  %74 = icmp ne i32 %73, 1
  br i1 %74, label %75, label %76

75:                                               ; preds = %70
  br label %115

76:                                               ; preds = %70
  %77 = load ptr, ptr %8, align 8, !tbaa !14
  %78 = getelementptr inbounds nuw %struct.H5LT_file_image_ud_t, ptr %77, i32 0, i32 7
  %79 = load i32, ptr %78, align 8, !tbaa !38
  %80 = add nsw i32 %79, -1
  store i32 %80, ptr %78, align 8, !tbaa !38
  %81 = load ptr, ptr %8, align 8, !tbaa !14
  %82 = getelementptr inbounds nuw %struct.H5LT_file_image_ud_t, ptr %81, i32 0, i32 4
  %83 = load i32, ptr %82, align 8, !tbaa !35
  %84 = icmp eq i32 %83, 0
  br i1 %84, label %85, label %106

85:                                               ; preds = %76
  %86 = load ptr, ptr %8, align 8, !tbaa !14
  %87 = getelementptr inbounds nuw %struct.H5LT_file_image_ud_t, ptr %86, i32 0, i32 7
  %88 = load i32, ptr %87, align 8, !tbaa !38
  %89 = icmp eq i32 %88, 0
  br i1 %89, label %90, label %106

90:                                               ; preds = %85
  %91 = load ptr, ptr %8, align 8, !tbaa !14
  %92 = getelementptr inbounds nuw %struct.H5LT_file_image_ud_t, ptr %91, i32 0, i32 8
  %93 = load i32, ptr %92, align 4, !tbaa !39
  %94 = and i32 %93, 4
  %95 = icmp ne i32 %94, 0
  br i1 %95, label %106, label %96

96:                                               ; preds = %90
  %97 = load ptr, ptr %8, align 8, !tbaa !14
  %98 = getelementptr inbounds nuw %struct.H5LT_file_image_ud_t, ptr %97, i32 0, i32 5
  %99 = load ptr, ptr %98, align 8, !tbaa !36
  call void @free(ptr noundef %99) #11
  %100 = load ptr, ptr %8, align 8, !tbaa !14
  %101 = getelementptr inbounds nuw %struct.H5LT_file_image_ud_t, ptr %100, i32 0, i32 0
  store ptr null, ptr %101, align 8, !tbaa !30
  %102 = load ptr, ptr %8, align 8, !tbaa !14
  %103 = getelementptr inbounds nuw %struct.H5LT_file_image_ud_t, ptr %102, i32 0, i32 2
  store ptr null, ptr %103, align 8, !tbaa !33
  %104 = load ptr, ptr %8, align 8, !tbaa !14
  %105 = getelementptr inbounds nuw %struct.H5LT_file_image_ud_t, ptr %104, i32 0, i32 5
  store ptr null, ptr %105, align 8, !tbaa !36
  br label %106

106:                                              ; preds = %96, %90, %85, %76
  %107 = load ptr, ptr %8, align 8, !tbaa !14
  %108 = call i32 @udata_free(ptr noundef %107)
  %109 = icmp slt i32 %108, 0
  br i1 %109, label %110, label %111

110:                                              ; preds = %106
  br label %115

111:                                              ; preds = %106
  br label %114

112:                                              ; preds = %17, %17, %17, %17, %17, %17
  br label %113

113:                                              ; preds = %17, %112
  br label %115

114:                                              ; preds = %111, %62
  store i32 0, ptr %4, align 4
  store i32 1, ptr %9, align 4
  br label %116

115:                                              ; preds = %113, %110, %75, %69, %31, %25, %16
  store i32 -1, ptr %4, align 4
  store i32 1, ptr %9, align 4
  br label %116

116:                                              ; preds = %115, %114
  call void @llvm.lifetime.end.p0(i64 8, ptr %8) #11
  %117 = load i32, ptr %4, align 4
  ret i32 %117
}