; Function Attrs: mustprogress nounwind willreturn uwtable
define internal range(i32 -1, 1) i32 @image_free(ptr noundef readnone captures(address) %0, i32 noundef %1, ptr noundef captures(none) %2) #7 {
  %4 = getelementptr inbounds nuw i8, ptr %2, i64 60
  %5 = load i32, ptr %4, align 4, !tbaa !20
  %6 = and i32 %5, 2
  %.not = icmp eq i32 %6, 0
  br i1 %.not, label %udata_free.exit, label %7

7:                                                ; preds = %3
  switch i32 %1, label %udata_free.exit [
    i32 4, label %8
    i32 7, label %25
  ]

8:                                                ; preds = %7
  %9 = getelementptr inbounds nuw i8, ptr %2, i64 16
  %10 = load ptr, ptr %9, align 8, !tbaa !24
  %.not31 = icmp eq ptr %10, %0
  br i1 %.not31, label %11, label %udata_free.exit

11:                                               ; preds = %8
  %12 = getelementptr inbounds nuw i8, ptr %2, i64 32
  %13 = load i32, ptr %12, align 8, !tbaa !26
  %14 = icmp eq i32 %13, 0
  br i1 %14, label %udata_free.exit, label %15

15:                                               ; preds = %11
  %16 = add nsw i32 %13, -1
  store i32 %16, ptr %12, align 8, !tbaa !26
  %17 = icmp eq i32 %16, 0
  br i1 %17, label %18, label %udata_free.exit

18:                                               ; preds = %15
  %19 = getelementptr inbounds nuw i8, ptr %2, i64 56
  %20 = load i32, ptr %19, align 8, !tbaa !29
  %21 = and i32 %5, 4
  %22 = or i32 %20, %21
  %or.cond = icmp eq i32 %22, 0
  br i1 %or.cond, label %23, label %udata_free.exit

23:                                               ; preds = %18
  tail call void @free(ptr noundef %10) #20
  store ptr null, ptr %2, align 8, !tbaa !17
  store ptr null, ptr %9, align 8, !tbaa !24
  %24 = getelementptr inbounds nuw i8, ptr %2, i64 40
  store ptr null, ptr %24, align 8, !tbaa !27
  br label %udata_free.exit

25:                                               ; preds = %7
  %26 = getelementptr inbounds nuw i8, ptr %2, i64 40
  %27 = load ptr, ptr %26, align 8, !tbaa !27
  %.not28 = icmp eq ptr %27, %0
  br i1 %.not28, label %28, label %udata_free.exit

28:                                               ; preds = %25
  %29 = getelementptr inbounds nuw i8, ptr %2, i64 56
  %30 = load i32, ptr %29, align 8, !tbaa !29
  %.not29 = icmp eq i32 %30, 1
  br i1 %.not29, label %31, label %udata_free.exit

31:                                               ; preds = %28
  store i32 0, ptr %29, align 8, !tbaa !29
  %32 = getelementptr inbounds nuw i8, ptr %2, i64 32
  %33 = load i32, ptr %32, align 8, !tbaa !26
  %34 = and i32 %5, 4
  %35 = or i32 %33, %34
  %or.cond34 = icmp eq i32 %35, 0
  br i1 %or.cond34, label %36, label %.thread

36:                                               ; preds = %31
  tail call void @free(ptr noundef %27) #20
  store ptr null, ptr %2, align 8, !tbaa !17
  %37 = getelementptr inbounds nuw i8, ptr %2, i64 16
  store ptr null, ptr %37, align 8, !tbaa !24
  store ptr null, ptr %26, align 8, !tbaa !27
  %.pre = load i32, ptr %4, align 4, !tbaa !20
  %.pre35 = and i32 %.pre, 2
  %38 = icmp eq i32 %.pre35, 0
  br i1 %38, label %udata_free.exit, label %.thread

.thread:                                          ; preds = %31, %36
  %39 = getelementptr inbounds nuw i8, ptr %2, i64 64
  %40 = load i32, ptr %39, align 8, !tbaa !21
  %41 = icmp eq i32 %40, 0
  br i1 %41, label %udata_free.exit, label %42

42:                                               ; preds = %.thread
  %43 = add nsw i32 %40, -1
  store i32 %43, ptr %39, align 8, !tbaa !21
  %44 = icmp eq i32 %43, 0
  br i1 %44, label %45, label %udata_free.exit

45:                                               ; preds = %42
  tail call void @free(ptr noundef nonnull %2) #20
  br label %udata_free.exit

udata_free.exit:                                  ; preds = %36, %.thread, %3, %8, %11, %25, %28, %7, %45, %42, %23, %18, %15
  %.0 = phi i32 [ 0, %15 ], [ 0, %18 ], [ 0, %23 ], [ 0, %42 ], [ 0, %45 ], [ -1, %7 ], [ -1, %28 ], [ -1, %25 ], [ -1, %11 ], [ -1, %8 ], [ -1, %3 ], [ -1, %.thread ], [ -1, %36 ]
  ret i32 %.0
}